; Function Attrs: mustprogress nounwind uwtable
define void @_ZN3gmx25AbstractAnalysisArrayDataD2Ev(ptr noundef nonnull align 8 dereferenceable(94) %0) unnamed_addr #0 align 2 personality ptr @__gxx_personality_v0 {
  store ptr getelementptr inbounds inrange(-16, 40) ({ [7 x ptr] }, ptr @_ZTVN3gmx25AbstractAnalysisArrayDataE, i64 0, i32 0, i64 2), ptr %0, align 8
  %2 = getelementptr inbounds i8, ptr %0, i64 64
  %3 = load ptr, ptr %2, align 8
  %.not.i.i.i = icmp eq ptr %3, null
  br i1 %.not.i.i.i, label %_ZNSt6vectorIfSaIfEED2Ev.exit, label %4

4:                                                ; preds = %1
  tail call void @_ZdlPv(ptr noundef nonnull %3) #14
  br label %_ZNSt6vectorIfSaIfEED2Ev.exit

_ZNSt6vectorIfSaIfEED2Ev.exit:                    ; preds = %1, %4
  %5 = getelementptr inbounds i8, ptr %0, i64 40
  %6 = load ptr, ptr %5, align 8
  %.not.i.i.i1 = icmp eq ptr %6, null
  br i1 %.not.i.i.i1, label %_ZNSt6vectorIN3gmx17AnalysisDataValueESaIS1_EED2Ev.exit, label %7

7:                                                ; preds = %_ZNSt6vectorIfSaIfEED2Ev.exit
  tail call void @_ZdlPv(ptr noundef nonnull %6) #14
  br label %_ZNSt6vectorIN3gmx17AnalysisDataValueESaIS1_EED2Ev.exit

_ZNSt6vectorIN3gmx17AnalysisDataValueESaIS1_EED2Ev.exit: ; preds = %_ZNSt6vectorIfSaIfEED2Ev.exit, %7
  tail call void @_ZN3gmx20AbstractAnalysisDataD2Ev(ptr noundef nonnull align 8 dereferenceable(16) %0) #13
  ret void
}